; Function Attrs: mustprogress nofree norecurse nosync nounwind willreturn memory(argmem: read) uwtable
define noundef i32 @_ZNK4toku8treenode18get_depth_estimateEv(ptr noundef nonnull readonly align 8 captures(none) dereferenceable(202) %0) local_unnamed_addr #4 align 2 {
  %2 = getelementptr inbounds nuw i8, ptr %0, i64 168
  %3 = load i32, ptr %2, align 8, !tbaa !28
  %4 = getelementptr inbounds nuw i8, ptr %0, i64 184
  %5 = load i32, ptr %4, align 8, !tbaa !29
  %6 = tail call i32 @llvm.umax.i32(i32 %3, i32 %5)
  %7 = add i32 %6, 1
  ret i32 %7
}